; Function Attrs: mustprogress nofree norecurse nosync nounwind willreturn memory(argmem: write) uwtable
define hidden void @_ZN2cv11ExifEntry_tC2Ev(ptr noundef nonnull align 8 dereferenceable(88) initializes((0, 24)) %0) unnamed_addr #3 align 2 personality ptr @__gxx_personality_v0 {
  tail call void @llvm.memset.p0.i64(ptr noundef nonnull align 8 dereferenceable(24) %0, i8 0, i64 24, i1 false)
  %2 = getelementptr inbounds nuw i8, ptr %0, i64 24
  %3 = getelementptr inbounds nuw i8, ptr %0, i64 40
  store ptr %3, ptr %2, align 8, !tbaa !3
  %4 = getelementptr inbounds nuw i8, ptr %0, i64 32
  store i64 0, ptr %4, align 8, !tbaa !9
  store i8 0, ptr %3, align 8, !tbaa !12
  %5 = getelementptr inbounds nuw i8, ptr %0, i64 56
  store float 0.000000e+00, ptr %5, align 8, !tbaa !13
  %6 = getelementptr inbounds nuw i8, ptr %0, i64 64
  %7 = getelementptr inbounds nuw i8, ptr %0, i64 80
  tail call void @llvm.memset.p0.i64(ptr noundef nonnull align 8 dereferenceable(16) %6, i8 0, i64 16, i1 false)
  store i16 -1, ptr %7, align 8, !tbaa !24
  %8 = getelementptr inbounds nuw i8, ptr %0, i64 82
  tail call void @llvm.memset.p0.i64(ptr noundef nonnull align 2 dereferenceable(6) %8, i8 0, i64 6, i1 false)
  ret void
}